; Function Attrs: mustprogress nounwind uwtable
define dso_local noundef nonnull align 8 dereferenceable(120) ptr @_ZN4node6crypto17SignConfigurationaSEOS1_(ptr noundef nonnull returned align 8 dereferenceable(120) %this, ptr noundef nonnull align 8 dereferenceable(120) %other) local_unnamed_addr #3 align 2 {
entry:
  %cmp = icmp eq ptr %other, %this
  br i1 %cmp, label %return, label %if.end

if.end:                                           ; preds = %entry
  tail call void @_ZN4node6crypto17SignConfigurationD2Ev(ptr noundef nonnull align 8 dereferenceable(120) %this) #21
  store ptr getelementptr inbounds ({ [10 x ptr] }, ptr @_ZTVN4node6crypto17SignConfigurationE, i64 0, i32 0, i64 2), ptr %this, align 8
  %job_mode.i = getelementptr inbounds i8, ptr %this, i64 8
  %job_mode2.i = getelementptr inbounds i8, ptr %other, i64 8
  %0 = load i32, ptr %job_mode2.i, align 8
  store i32 %0, ptr %job_mode.i, align 8
  %mode.i = getelementptr inbounds i8, ptr %this, i64 12
  %mode3.i = getelementptr inbounds i8, ptr %other, i64 12
  %1 = load i32, ptr %mode3.i, align 4
  store i32 %1, ptr %mode.i, align 4
  %key.i = getelementptr inbounds i8, ptr %this, i64 16
  %key4.i = getelementptr inbounds i8, ptr %other, i64 16
  tail call void @_ZN4node6crypto14ManagedEVPPKeyC1ERKS1_(ptr noundef nonnull align 8 dereferenceable(32) %key.i, ptr noundef nonnull align 8 dereferenceable(32) %key4.i) #21
  %data.i = getelementptr inbounds i8, ptr %this, i64 48
  %data5.i = getelementptr inbounds i8, ptr %other, i64 48
  tail call void @_ZN4node6crypto10ByteSourceC1EOS1_(ptr noundef nonnull align 8 dereferenceable(24) %data.i, ptr noundef nonnull align 8 dereferenceable(24) %data5.i) #21
  %signature.i = getelementptr inbounds i8, ptr %this, i64 72
  %signature6.i = getelementptr inbounds i8, ptr %other, i64 72
  tail call void @_ZN4node6crypto10ByteSourceC1EOS1_(ptr noundef nonnull align 8 dereferenceable(24) %signature.i, ptr noundef nonnull align 8 dereferenceable(24) %signature6.i) #21
  %digest.i = getelementptr inbounds i8, ptr %this, i64 96
  %digest7.i = getelementptr inbounds i8, ptr %other, i64 96
  %2 = load ptr, ptr %digest7.i, align 8
  store ptr %2, ptr %digest.i, align 8
  %flags.i = getelementptr inbounds i8, ptr %this, i64 104
  %flags8.i = getelementptr inbounds i8, ptr %other, i64 104
  %3 = load i32, ptr %flags8.i, align 8
  store i32 %3, ptr %flags.i, align 8
  %padding.i = getelementptr inbounds i8, ptr %this, i64 108
  %padding9.i = getelementptr inbounds i8, ptr %other, i64 108
  %4 = load i32, ptr %padding9.i, align 4
  store i32 %4, ptr %padding.i, align 4
  %salt_length.i = getelementptr inbounds i8, ptr %this, i64 112
  %salt_length10.i = getelementptr inbounds i8, ptr %other, i64 112
  %5 = load i32, ptr %salt_length10.i, align 8
  store i32 %5, ptr %salt_length.i, align 8
  %dsa_encoding.i = getelementptr inbounds i8, ptr %this, i64 116
  %dsa_encoding11.i = getelementptr inbounds i8, ptr %other, i64 116
  %6 = load i32, ptr %dsa_encoding11.i, align 4
  store i32 %6, ptr %dsa_encoding.i, align 4
  br label %return

return:                                           ; preds = %entry, %if.end
  ret ptr %this
}